; Function Attrs: nounwind uwtable
define noalias nonnull ptr @l_Lean_instMonadQuotationOfMonadFunctorOfMonadLift___rarg(ptr noundef %0, ptr noundef %1, ptr noundef %2) #0 {
  %4 = getelementptr inbounds nuw i8, ptr %2, i64 8
  %5 = load ptr, ptr %4, align 8, !tbaa !10
  %6 = ptrtoint ptr %5 to i64
  %7 = and i64 %6, 1
  %.not = icmp eq i64 %7, 0
  br i1 %.not, label %8, label %lean_inc.exit33

8:                                                ; preds = %3
  %.val.i = load i32, ptr %5, align 4, !tbaa !4
  %9 = icmp sgt i32 %.val.i, 0
  br i1 %9, label %10, label %12, !prof !9

10:                                               ; preds = %8
  %11 = add nuw i32 %.val.i, 1
  store i32 %11, ptr %5, align 4, !tbaa !4
  br label %lean_inc.exit33

12:                                               ; preds = %8
  %.not.i = icmp eq i32 %.val.i, 0
  br i1 %.not.i, label %lean_inc.exit33, label %13

13:                                               ; preds = %12
  tail call void @lean_inc_ref_cold(ptr noundef nonnull %5) #11
  br label %lean_inc.exit33

lean_inc.exit33:                                  ; preds = %13, %12, %10, %3
  %14 = ptrtoint ptr %0 to i64
  %15 = and i64 %14, 1
  %.not49 = icmp eq i64 %15, 0
  br i1 %.not49, label %16, label %lean_inc.exit32

16:                                               ; preds = %lean_inc.exit33
  %.val.i34 = load i32, ptr %0, align 4, !tbaa !4
  %17 = icmp sgt i32 %.val.i34, 0
  br i1 %17, label %18, label %20, !prof !9

18:                                               ; preds = %16
  %19 = add nuw i32 %.val.i34, 1
  store i32 %19, ptr %0, align 4, !tbaa !4
  br label %lean_inc.exit32

20:                                               ; preds = %16
  %.not.i35 = icmp eq i32 %.val.i34, 0
  br i1 %.not.i35, label %lean_inc.exit32, label %21

21:                                               ; preds = %20
  tail call void @lean_inc_ref_cold(ptr noundef nonnull %0) #11
  br label %lean_inc.exit32

lean_inc.exit32:                                  ; preds = %21, %20, %18, %lean_inc.exit33
  %22 = ptrtoint ptr %1 to i64
  %23 = and i64 %22, 1
  %.not50 = icmp eq i64 %23, 0
  br i1 %.not50, label %24, label %lean_inc.exit31

24:                                               ; preds = %lean_inc.exit32
  %.val.i37 = load i32, ptr %1, align 4, !tbaa !4
  %25 = icmp sgt i32 %.val.i37, 0
  br i1 %25, label %26, label %28, !prof !9

26:                                               ; preds = %24
  %27 = add nuw i32 %.val.i37, 1
  store i32 %27, ptr %1, align 4, !tbaa !4
  br label %lean_inc.exit31

28:                                               ; preds = %24
  %.not.i38 = icmp eq i32 %.val.i37, 0
  br i1 %.not.i38, label %lean_inc.exit31, label %29

29:                                               ; preds = %28
  tail call void @lean_inc_ref_cold(ptr noundef nonnull %1) #11
  br label %lean_inc.exit31

lean_inc.exit31:                                  ; preds = %29, %28, %26, %lean_inc.exit32
  %30 = tail call ptr @l_Lean_instMonadRefOfMonadLiftOfMonadFunctor___rarg(ptr noundef %1, ptr noundef %0, ptr noundef %5)
  %31 = getelementptr inbounds nuw i8, ptr %2, i64 16
  %32 = load ptr, ptr %31, align 8, !tbaa !10
  %33 = ptrtoint ptr %32 to i64
  %34 = and i64 %33, 1
  %.not51 = icmp eq i64 %34, 0
  br i1 %.not51, label %35, label %lean_inc.exit30

35:                                               ; preds = %lean_inc.exit31
  %.val.i40 = load i32, ptr %32, align 4, !tbaa !4
  %36 = icmp sgt i32 %.val.i40, 0
  br i1 %36, label %37, label %39, !prof !9

37:                                               ; preds = %35
  %38 = add nuw i32 %.val.i40, 1
  store i32 %38, ptr %32, align 4, !tbaa !4
  br label %lean_inc.exit30

39:                                               ; preds = %35
  %.not.i41 = icmp eq i32 %.val.i40, 0
  br i1 %.not.i41, label %lean_inc.exit30, label %40

40:                                               ; preds = %39
  tail call void @lean_inc_ref_cold(ptr noundef nonnull %32) #11
  br label %lean_inc.exit30

lean_inc.exit30:                                  ; preds = %40, %39, %37, %lean_inc.exit31
  br i1 %.not50, label %41, label %lean_inc.exit29

41:                                               ; preds = %lean_inc.exit30
  %.val.i43 = load i32, ptr %1, align 4, !tbaa !4
  %42 = icmp sgt i32 %.val.i43, 0
  br i1 %42, label %43, label %45, !prof !9

43:                                               ; preds = %41
  %44 = add nuw i32 %.val.i43, 1
  store i32 %44, ptr %1, align 4, !tbaa !4
  br label %lean_inc.exit29

45:                                               ; preds = %41
  %.not.i44 = icmp eq i32 %.val.i43, 0
  br i1 %.not.i44, label %lean_inc.exit29, label %46

46:                                               ; preds = %45
  tail call void @lean_inc_ref_cold(ptr noundef nonnull %1) #11
  br label %lean_inc.exit29

lean_inc.exit29:                                  ; preds = %46, %45, %43, %lean_inc.exit30
  %47 = tail call ptr @lean_apply_2(ptr noundef %1, ptr noundef nonnull inttoptr (i64 1 to ptr), ptr noundef %32) #11
  %48 = getelementptr inbounds nuw i8, ptr %2, i64 24
  %49 = load ptr, ptr %48, align 8, !tbaa !10
  %50 = ptrtoint ptr %49 to i64
  %51 = and i64 %50, 1
  %.not52 = icmp eq i64 %51, 0
  br i1 %.not52, label %52, label %lean_inc.exit

52:                                               ; preds = %lean_inc.exit29
  %.val.i46 = load i32, ptr %49, align 4, !tbaa !4
  %53 = icmp sgt i32 %.val.i46, 0
  br i1 %53, label %54, label %56, !prof !9

54:                                               ; preds = %52
  %55 = add nuw i32 %.val.i46, 1
  store i32 %55, ptr %49, align 4, !tbaa !4
  br label %lean_inc.exit

56:                                               ; preds = %52
  %.not.i47 = icmp eq i32 %.val.i46, 0
  br i1 %.not.i47, label %lean_inc.exit, label %57

57:                                               ; preds = %56
  tail call void @lean_inc_ref_cold(ptr noundef nonnull %49) #11
  br label %lean_inc.exit

lean_inc.exit:                                    ; preds = %57, %56, %54, %lean_inc.exit29
  %58 = tail call ptr @lean_apply_2(ptr noundef %1, ptr noundef nonnull inttoptr (i64 1 to ptr), ptr noundef %49) #11
  tail call void @lean_inc_heartbeat() #11
  %59 = tail call noalias ptr @mi_malloc_small(i64 noundef 40) #11
  %60 = icmp eq ptr %59, null
  br i1 %60, label %61, label %lean_alloc_closure.exit

61:                                               ; preds = %lean_inc.exit
  tail call void @lean_internal_panic_out_of_memory() #12
  unreachable

lean_alloc_closure.exit:                          ; preds = %lean_inc.exit
  %62 = getelementptr inbounds nuw i8, ptr %59, i64 4
  store i32 1, ptr %59, align 4, !tbaa !4
  store i32 -184549336, ptr %62, align 4
  %63 = getelementptr inbounds nuw i8, ptr %59, i64 8
  store ptr @l_Lean_instMonadQuotationOfMonadFunctorOfMonadLift___rarg___lambda__2, ptr %63, align 8, !tbaa !10
  %64 = getelementptr inbounds nuw i8, ptr %59, i64 16
  store i16 4, ptr %64, align 8, !tbaa !12
  %65 = getelementptr inbounds nuw i8, ptr %59, i64 18
  store i16 2, ptr %65, align 2, !tbaa !12
  %66 = getelementptr inbounds nuw i8, ptr %59, i64 24
  store ptr %2, ptr %66, align 8, !tbaa !10
  %67 = getelementptr inbounds nuw i8, ptr %59, i64 32
  store ptr %0, ptr %67, align 8, !tbaa !10
  tail call void @lean_inc_heartbeat() #11
  %68 = tail call noalias ptr @mi_malloc_small(i64 noundef 40) #11
  %69 = icmp eq ptr %68, null
  br i1 %69, label %70, label %lean_alloc_ctor.exit

70:                                               ; preds = %lean_alloc_closure.exit
  tail call void @lean_internal_panic_out_of_memory() #12
  unreachable

lean_alloc_ctor.exit:                             ; preds = %lean_alloc_closure.exit
  %71 = getelementptr inbounds nuw i8, ptr %68, i64 4
  store i32 1, ptr %68, align 4, !tbaa !4
  store i32 262184, ptr %71, align 4
  %72 = getelementptr inbounds nuw i8, ptr %68, i64 8
  store ptr %30, ptr %72, align 8, !tbaa !10
  %73 = getelementptr inbounds nuw i8, ptr %68, i64 16
  store ptr %47, ptr %73, align 8, !tbaa !10
  %74 = getelementptr inbounds nuw i8, ptr %68, i64 24
  store ptr %58, ptr %74, align 8, !tbaa !10
  %75 = getelementptr inbounds nuw i8, ptr %68, i64 32
  store ptr %59, ptr %75, align 8, !tbaa !10
  ret ptr %68
}